target datalayout = "e-m:e-p270:32:32-p271:32:32-p272:64:64-i64:64-i128:128-f80:128-n8:16:32:64-S128"
target triple = "x86_64-pc-linux-gnu"

%struct.MvcCubeStruct = type { ptr, i32, i32, [1 x i32] }
%struct.MvcCoverStruct = type { i32, i32, i32, %struct.MvcListStruct, ptr, i32, ptr, ptr, ptr }
%struct.MvcListStruct = type { ptr, ptr, i32 }

; Function Attrs: nounwind uwtable
define ptr @Mvc_CoverFlipVar(ptr noundef %0, i32 noundef %1, i32 noundef %2) #0 {
  %4 = alloca ptr, align 8
  %5 = alloca i32, align 4
  %6 = alloca i32, align 4
  %7 = alloca ptr, align 8
  %8 = alloca ptr, align 8
  %9 = alloca ptr, align 8
  %10 = alloca i32, align 4
  %11 = alloca i32, align 4
  %12 = alloca i32, align 4
  %13 = alloca ptr, align 8
  store ptr %0, ptr %4, align 8, !tbaa !3
  store i32 %1, ptr %5, align 4, !tbaa !10
  store i32 %2, ptr %6, align 4, !tbaa !10
  call void @llvm.lifetime.start.p0(i64 8, ptr %7) #3
  call void @llvm.lifetime.start.p0(i64 8, ptr %8) #3
  call void @llvm.lifetime.start.p0(i64 8, ptr %9) #3
  call void @llvm.lifetime.start.p0(i64 4, ptr %10) #3
  call void @llvm.lifetime.start.p0(i64 4, ptr %11) #3
  call void @llvm.lifetime.start.p0(i64 4, ptr %12) #3
  %14 = load ptr, ptr %4, align 8, !tbaa !3
  %15 = call ptr @Mvc_CoverClone(ptr noundef %14)
  store ptr %15, ptr %7, align 8, !tbaa !3
  %16 = load ptr, ptr %4, align 8, !tbaa !3
  %17 = getelementptr inbounds nuw %struct.MvcCoverStruct, ptr %16, i32 0, i32 3
  %18 = getelementptr inbounds nuw %struct.MvcListStruct, ptr %17, i32 0, i32 0
  %19 = load ptr, ptr %18, align 8, !tbaa !14
  store ptr %19, ptr %8, align 8, !tbaa !8
  br label %20

20:                                               ; preds = %145, %3
  %21 = load ptr, ptr %8, align 8, !tbaa !8
  %22 = icmp ne ptr %21, null
  br i1 %22, label %23, label %149

23:                                               ; preds = %20
  %24 = load ptr, ptr %7, align 8, !tbaa !3
  %25 = load ptr, ptr %8, align 8, !tbaa !8
  %26 = call ptr @Mvc_CubeDup(ptr noundef %24, ptr noundef %25)
  store ptr %26, ptr %9, align 8, !tbaa !8
  call void @llvm.lifetime.start.p0(i64 8, ptr %13) #3
  %27 = load ptr, ptr %7, align 8, !tbaa !3
  %28 = getelementptr inbounds nuw %struct.MvcCoverStruct, ptr %27, i32 0, i32 3
  store ptr %28, ptr %13, align 8, !tbaa !36
  %29 = load ptr, ptr %13, align 8, !tbaa !36
  %30 = getelementptr inbounds nuw %struct.MvcListStruct, ptr %29, i32 0, i32 0
  %31 = load ptr, ptr %30, align 8, !tbaa !38
  %32 = icmp eq ptr %31, null
  br i1 %32, label %33, label %37

33:                                               ; preds = %23
  %34 = load ptr, ptr %9, align 8, !tbaa !8
  %35 = load ptr, ptr %13, align 8, !tbaa !36
  %36 = getelementptr inbounds nuw %struct.MvcListStruct, ptr %35, i32 0, i32 0
  store ptr %34, ptr %36, align 8, !tbaa !38
  br label %43

37:                                               ; preds = %23
  %38 = load ptr, ptr %9, align 8, !tbaa !8
  %39 = load ptr, ptr %13, align 8, !tbaa !36
  %40 = getelementptr inbounds nuw %struct.MvcListStruct, ptr %39, i32 0, i32 1
  %41 = load ptr, ptr %40, align 8, !tbaa !39
  %42 = getelementptr inbounds nuw %struct.MvcCubeStruct, ptr %41, i32 0, i32 0
  store ptr %38, ptr %42, align 8, !tbaa !21
  br label %43

43:                                               ; preds = %37, %33
  %44 = load ptr, ptr %9, align 8, !tbaa !8
  %45 = load ptr, ptr %13, align 8, !tbaa !36
  %46 = getelementptr inbounds nuw %struct.MvcListStruct, ptr %45, i32 0, i32 1
  store ptr %44, ptr %46, align 8, !tbaa !39
  %47 = load ptr, ptr %9, align 8, !tbaa !8
  %48 = getelementptr inbounds nuw %struct.MvcCubeStruct, ptr %47, i32 0, i32 0
  store ptr null, ptr %48, align 8, !tbaa !21
  %49 = load ptr, ptr %13, align 8, !tbaa !36
  %50 = getelementptr inbounds nuw %struct.MvcListStruct, ptr %49, i32 0, i32 2
  %51 = load i32, ptr %50, align 8, !tbaa !40
  %52 = add nsw i32 %51, 1
  store i32 %52, ptr %50, align 8, !tbaa !40
  call void @llvm.lifetime.end.p0(i64 8, ptr %13) #3
  %53 = load ptr, ptr %9, align 8, !tbaa !8
  %54 = getelementptr inbounds nuw %struct.MvcCubeStruct, ptr %53, i32 0, i32 3
  %55 = load i32, ptr %5, align 4, !tbaa !10
  %56 = ashr i32 %55, 5
  %57 = sext i32 %56 to i64
  %58 = getelementptr inbounds [1 x i32], ptr %54, i64 0, i64 %57
  %59 = load i32, ptr %58, align 4, !tbaa !10
  %60 = load i32, ptr %5, align 4, !tbaa !10
  %61 = and i32 %60, 31
  %62 = shl i32 1, %61
  %63 = and i32 %59, %62
  %64 = icmp ugt i32 %63, 0
  %65 = zext i1 %64 to i32
  store i32 %65, ptr %10, align 4, !tbaa !10
  %66 = load ptr, ptr %9, align 8, !tbaa !8
  %67 = getelementptr inbounds nuw %struct.MvcCubeStruct, ptr %66, i32 0, i32 3
  %68 = load i32, ptr %6, align 4, !tbaa !10
  %69 = ashr i32 %68, 5
  %70 = sext i32 %69 to i64
  %71 = getelementptr inbounds [1 x i32], ptr %67, i64 0, i64 %70
  %72 = load i32, ptr %71, align 4, !tbaa !10
  %73 = load i32, ptr %6, align 4, !tbaa !10
  %74 = and i32 %73, 31
  %75 = shl i32 1, %74
  %76 = and i32 %72, %75
  %77 = icmp ugt i32 %76, 0
  %78 = zext i1 %77 to i32
  store i32 %78, ptr %11, align 4, !tbaa !10
  %79 = load i32, ptr %10, align 4, !tbaa !10
  %80 = icmp ne i32 %79, 0
  br i1 %80, label %81, label %85

81:                                               ; preds = %43
  %82 = load i32, ptr %11, align 4, !tbaa !10
  %83 = icmp ne i32 %82, 0
  br i1 %83, label %84, label %85

84:                                               ; preds = %81
  br label %145

85:                                               ; preds = %81, %43
  %86 = load i32, ptr %10, align 4, !tbaa !10
  store i32 %86, ptr %12, align 4, !tbaa !10
  %87 = load i32, ptr %11, align 4, !tbaa !10
  store i32 %87, ptr %10, align 4, !tbaa !10
  %88 = load i32, ptr %12, align 4, !tbaa !10
  store i32 %88, ptr %11, align 4, !tbaa !10
  %89 = load i32, ptr %10, align 4, !tbaa !10
  %90 = icmp ne i32 %89, 0
  br i1 %90, label %91, label %103

91:                                               ; preds = %85
  %92 = load i32, ptr %5, align 4, !tbaa !10
  %93 = and i32 %92, 31
  %94 = shl i32 1, %93
  %95 = load ptr, ptr %9, align 8, !tbaa !8
  %96 = getelementptr inbounds nuw %struct.MvcCubeStruct, ptr %95, i32 0, i32 3
  %97 = load i32, ptr %5, align 4, !tbaa !10
  %98 = ashr i32 %97, 5
  %99 = sext i32 %98 to i64
  %100 = getelementptr inbounds [1 x i32], ptr %96, i64 0, i64 %99
  %101 = load i32, ptr %100, align 4, !tbaa !10
  %102 = or i32 %101, %94
  store i32 %102, ptr %100, align 4, !tbaa !10
  br label %116

103:                                              ; preds = %85
  %104 = load i32, ptr %5, align 4, !tbaa !10
  %105 = and i32 %104, 31
  %106 = shl i32 1, %105
  %107 = xor i32 %106, -1
  %108 = load ptr, ptr %9, align 8, !tbaa !8
  %109 = getelementptr inbounds nuw %struct.MvcCubeStruct, ptr %108, i32 0, i32 3
  %110 = load i32, ptr %5, align 4, !tbaa !10
  %111 = ashr i32 %110, 5
  %112 = sext i32 %111 to i64
  %113 = getelementptr inbounds [1 x i32], ptr %109, i64 0, i64 %112
  %114 = load i32, ptr %113, align 4, !tbaa !10
  %115 = and i32 %114, %107
  store i32 %115, ptr %113, align 4, !tbaa !10
  br label %116

116:                                              ; preds = %103, %91
  %117 = load i32, ptr %11, align 4, !tbaa !10
  %118 = icmp ne i32 %117, 0
  br i1 %118, label %119, label %131

119:                                              ; preds = %116
  %120 = load i32, ptr %6, align 4, !tbaa !10
  %121 = and i32 %120, 31
  %122 = shl i32 1, %121
  %123 = load ptr, ptr %9, align 8, !tbaa !8
  %124 = getelementptr inbounds nuw %struct.MvcCubeStruct, ptr %123, i32 0, i32 3
  %125 = load i32, ptr %6, align 4, !tbaa !10
  %126 = ashr i32 %125, 5
  %127 = sext i32 %126 to i64
  %128 = getelementptr inbounds [1 x i32], ptr %124, i64 0, i64 %127
  %129 = load i32, ptr %128, align 4, !tbaa !10
  %130 = or i32 %129, %122
  store i32 %130, ptr %128, align 4, !tbaa !10
  br label %144

131:                                              ; preds = %116
  %132 = load i32, ptr %6, align 4, !tbaa !10
  %133 = and i32 %132, 31
  %134 = shl i32 1, %133
  %135 = xor i32 %134, -1
  %136 = load ptr, ptr %9, align 8, !tbaa !8
  %137 = getelementptr inbounds nuw %struct.MvcCubeStruct, ptr %136, i32 0, i32 3
  %138 = load i32, ptr %6, align 4, !tbaa !10
  %139 = ashr i32 %138, 5
  %140 = sext i32 %139 to i64
  %141 = getelementptr inbounds [1 x i32], ptr %137, i64 0, i64 %140
  %142 = load i32, ptr %141, align 4, !tbaa !10
  %143 = and i32 %142, %135
  store i32 %143, ptr %141, align 4, !tbaa !10
  br label %144

144:                                              ; preds = %131, %119
  br label %145

145:                                              ; preds = %144, %84
  %146 = load ptr, ptr %8, align 8, !tbaa !8
  %147 = getelementptr inbounds nuw %struct.MvcCubeStruct, ptr %146, i32 0, i32 0
  %148 = load ptr, ptr %147, align 8, !tbaa !21
  store ptr %148, ptr %8, align 8, !tbaa !8
  br label %20, !llvm.loop !63

149:                                              ; preds = %20
  %150 = load ptr, ptr %7, align 8, !tbaa !3
  call void @llvm.lifetime.end.p0(i64 4, ptr %12) #3
  call void @llvm.lifetime.end.p0(i64 4, ptr %11) #3
  call void @llvm.lifetime.end.p0(i64 4, ptr %10) #3
  call void @llvm.lifetime.end.p0(i64 8, ptr %9) #3
  call void @llvm.lifetime.end.p0(i64 8, ptr %8) #3
  call void @llvm.lifetime.end.p0(i64 8, ptr %7) #3
  ret ptr %150
}