; Function Attrs: nounwind uwtable
define ptr @Mvc_CoverFlipVar(ptr noundef %0, i32 noundef %1, i32 noundef %2) local_unnamed_addr #1 {
  %4 = tail call ptr @Mvc_CoverClone(ptr noundef %0) #6
  %5 = getelementptr inbounds nuw i8, ptr %0, i64 16
  %.042 = load ptr, ptr %5, align 8, !tbaa !7
  %.not43 = icmp eq ptr %.042, null
  br i1 %.not43, label %._crit_edge, label %.lr.ph

.lr.ph:                                           ; preds = %3
  %6 = getelementptr inbounds nuw i8, ptr %4, i64 16
  %7 = getelementptr inbounds nuw i8, ptr %4, i64 24
  %8 = getelementptr inbounds nuw i8, ptr %4, i64 32
  %9 = ashr i32 %1, 5
  %10 = sext i32 %9 to i64
  %11 = and i32 %1, 31
  %12 = shl nuw i32 1, %11
  %13 = ashr i32 %2, 5
  %14 = sext i32 %13 to i64
  %15 = and i32 %2, 31
  %16 = shl nuw i32 1, %15
  %17 = xor i32 %12, -1
  %18 = xor i32 %16, -1
  br label %19

19:                                               ; preds = %.lr.ph, %43
  %.044 = phi ptr [ %.042, %.lr.ph ], [ %.0, %43 ]
  %20 = tail call ptr @Mvc_CubeDup(ptr noundef %4, ptr noundef nonnull %.044) #6
  %21 = load ptr, ptr %6, align 8, !tbaa !28
  %22 = icmp eq ptr %21, null
  br i1 %22, label %23, label %24

23:                                               ; preds = %19
  store ptr %20, ptr %6, align 8, !tbaa !28
  br label %26

24:                                               ; preds = %19
  %25 = load ptr, ptr %7, align 8, !tbaa !29
  store ptr %20, ptr %25, align 8, !tbaa !30
  br label %26

26:                                               ; preds = %24, %23
  store ptr %20, ptr %7, align 8, !tbaa !29
  store ptr null, ptr %20, align 8, !tbaa !30
  %27 = load i32, ptr %8, align 8, !tbaa !32
  %28 = add nsw i32 %27, 1
  store i32 %28, ptr %8, align 8, !tbaa !32
  %29 = getelementptr inbounds nuw i8, ptr %20, i64 16
  %30 = getelementptr inbounds [1 x i32], ptr %29, i64 0, i64 %10
  %31 = load i32, ptr %30, align 4, !tbaa !3
  %32 = and i32 %31, %12
  %33 = icmp ne i32 %32, 0
  %34 = getelementptr inbounds [1 x i32], ptr %29, i64 0, i64 %14
  %35 = load i32, ptr %34, align 4, !tbaa !3
  %36 = and i32 %35, %16
  %37 = icmp ne i32 %36, 0
  %or.cond = select i1 %33, i1 %37, i1 false
  br i1 %or.cond, label %43, label %.sink.split

.sink.split:                                      ; preds = %26
  %38 = and i32 %31, %17
  %39 = or i32 %31, %12
  %storemerge = select i1 %37, i32 %39, i32 %38
  store i32 %storemerge, ptr %30, align 4, !tbaa !3
  %40 = load i32, ptr %34, align 4, !tbaa !3
  %41 = or i32 %40, %16
  %42 = and i32 %40, %18
  %.sink = select i1 %33, i32 %41, i32 %42
  store i32 %.sink, ptr %34, align 4, !tbaa !3
  br label %43

43:                                               ; preds = %.sink.split, %26
  %.0 = load ptr, ptr %.044, align 8, !tbaa !7
  %.not = icmp eq ptr %.0, null
  br i1 %.not, label %._crit_edge, label %19, !llvm.loop !51

._crit_edge:                                      ; preds = %43, %3
  ret ptr %4
}